; Function Attrs: nofree norecurse nosync nounwind memory(read, inaccessiblemem: none) uwtable
define dso_local i32 @expr_scanner_get_lineno(ptr noundef readonly captures(none) %0, i32 noundef %1) local_unnamed_addr #23 {
  %3 = getelementptr inbounds nuw i8, ptr %0, i64 32
  %4 = load ptr, ptr %3, align 8
  %5 = load i8, ptr %4, align 1
  %6 = icmp ne i8 %5, 0
  %7 = icmp sgt i32 %1, 0
  %8 = and i1 %6, %7
  br i1 %8, label %.lr.ph, label %._crit_edge

.lr.ph:                                           ; preds = %2, %.lr.ph
  %9 = phi i8 [ %14, %.lr.ph ], [ %5, %2 ]
  %.012 = phi ptr [ %12, %.lr.ph ], [ %4, %2 ]
  %.0711 = phi i32 [ %spec.select, %.lr.ph ], [ 1, %2 ]
  %.0810 = phi i32 [ %13, %.lr.ph ], [ %1, %2 ]
  %10 = icmp eq i8 %9, 10
  %11 = zext i1 %10 to i32
  %spec.select = add i32 %.0711, %11
  %12 = getelementptr inbounds nuw i8, ptr %.012, i64 1
  %13 = add nsw i32 %.0810, -1
  %14 = load i8, ptr %12, align 1
  %15 = icmp ne i8 %14, 0
  %16 = icmp samesign ugt i32 %.0810, 1
  %17 = select i1 %15, i1 %16, i1 false
  br i1 %17, label %.lr.ph, label %._crit_edge, !llvm.loop !16

._crit_edge:                                      ; preds = %.lr.ph, %2
  %.07.lcssa = phi i32 [ 1, %2 ], [ %spec.select, %.lr.ph ]
  ret i32 %.07.lcssa
}